GAS LISTING C:\Users\zanil\AppData\Local\Temp\ccBp1gMa.s 			page 1


   1              		.file	"adc.c"
   2              		.option nopic
   3              		.attribute arch, "rv32i2p0_m2p0_a2p0_c2p0"
   4              		.attribute unaligned_access, 0
   5              		.attribute stack_align, 16
   6              		.text
   7              	.Ltext0:
   8              		.cfi_sections	.debug_frame
   9              		.section	.text.ADC3powerUpInit,"ax",@progbits
  10              		.align	1
  11              		.globl	ADC3powerUpInit
  13              	ADC3powerUpInit:
  14              	.LFB2:
  15              		.file 1 "adc.c"
   1:adc.c         **** #include "adc.h"
   2:adc.c         **** #include "gd32vf103.h"
   3:adc.c         **** 
   4:adc.c         **** void ADC3powerUpInit(int tmp) {
  16              		.loc 1 4 31
  17              		.cfi_startproc
  18              	.LVL0:
   5:adc.c         ****     rcu_periph_clock_enable(RCU_GPIOA);
  19              		.loc 1 5 5
   4:adc.c         ****     rcu_periph_clock_enable(RCU_GPIOA);
  20              		.loc 1 4 31 is_stmt 0
  21 0000 4111     		addi	sp,sp,-16
  22              	.LCFI0:
  23              		.cfi_def_cfa_offset 16
  24 0002 26C2     		sw	s1,4(sp)
  25              		.cfi_offset 9, -12
  26 0004 AA84     		mv	s1,a0
  27              		.loc 1 5 5
  28 0006 13052060 		li	a0,1538
  29              	.LVL1:
   4:adc.c         ****     rcu_periph_clock_enable(RCU_GPIOA);
  30              		.loc 1 4 31
  31 000a 06C6     		sw	ra,12(sp)
  32 000c 22C4     		sw	s0,8(sp)
  33              		.cfi_offset 1, -4
  34              		.cfi_offset 8, -8
  35              		.loc 1 5 5
  36 000e 97000000 		call	rcu_periph_clock_enable
  36      E7800000 
  37              	.LVL2:
   6:adc.c         ****     rcu_periph_clock_enable(RCU_ADC0);
  38              		.loc 1 6 5 is_stmt 1
  39 0016 13059060 		li	a0,1545
  40 001a 97000000 		call	rcu_periph_clock_enable
  40      E7800000 
  41              	.LVL3:
   7:adc.c         ****     rcu_adc_clock_config(RCU_CKADC_CKAPB2_DIV8);
  42              		.loc 1 7 5
  43 0022 0D45     		li	a0,3
  44 0024 97000000 		call	rcu_adc_clock_config
  44      E7800000 
  45              	.LVL4:
   8:adc.c         **** 
GAS LISTING C:\Users\zanil\AppData\Local\Temp\ccBp1gMa.s 			page 2


   9:adc.c         ****     gpio_init(GPIOA, GPIO_MODE_AIN, GPIO_MODE_OUT_PP, GPIO_PIN_3);
  46              		.loc 1 9 5
  47 002c 37140140 		li	s0,1073811456
  48 0030 13050480 		addi	a0,s0,-2048
  49 0034 A146     		li	a3,8
  50 0036 4146     		li	a2,16
  51 0038 8145     		li	a1,0
  52 003a 97000000 		call	gpio_init
  52      E7800000 
  53              	.LVL5:
  10:adc.c         ****     gpio_init(GPIOA, GPIO_MODE_AIN, GPIO_MODE_OUT_PP, GPIO_PIN_2);      //!SWIM!
  54              		.loc 1 10 5
  55 0042 9146     		li	a3,4
  56 0044 4146     		li	a2,16
  57 0046 8145     		li	a1,0
  58 0048 13050480 		addi	a0,s0,-2048
  59 004c 97000000 		call	gpio_init
  59      E7800000 
  60              	.LVL6:
  11:adc.c         **** 
  12:adc.c         ****     adc_deinit(ADC0);                                                   // Reset...
  61              		.loc 1 12 5
  62 0054 37240140 		li	s0,1073815552
  63 0058 13050440 		addi	a0,s0,1024
  64 005c 97000000 		call	adc_deinit
  64      E7800000 
  65              	.LVL7:
  13:adc.c         ****     adc_mode_config(ADC_MODE_FREE);                                     // ADC0 & ADC1 runs indep.
  66              		.loc 1 13 5
  67 0064 0145     		li	a0,0
  68 0066 97000000 		call	adc_mode_config
  68      E7800000 
  69              	.LVL8:
  14:adc.c         ****     adc_special_function_config(ADC0, ADC_CONTINUOUS_MODE, DISABLE);    // Trigger each sample
  70              		.loc 1 14 5
  71 006e 0146     		li	a2,0
  72 0070 8945     		li	a1,2
  73 0072 13050440 		addi	a0,s0,1024
  74 0076 97000000 		call	adc_special_function_config
  74      E7800000 
  75              	.LVL9:
  15:adc.c         ****     adc_special_function_config(ADC0, ADC_SCAN_MODE, DISABLE);          // Scan mode disable
  76              		.loc 1 15 5
  77 007e 0146     		li	a2,0
  78 0080 93050010 		li	a1,256
  79 0084 13050440 		addi	a0,s0,1024
  80 0088 97000000 		call	adc_special_function_config
  80      E7800000 
  81              	.LVL10:
  16:adc.c         ****     adc_data_alignment_config(ADC0, ADC_DATAALIGN_RIGHT);               // Align ADC value right
  82              		.loc 1 16 5
  83 0090 8145     		li	a1,0
  84 0092 13050440 		addi	a0,s0,1024
  85 0096 97000000 		call	adc_data_alignment_config
  85      E7800000 
  86              	.LVL11:
  17:adc.c         ****     adc_channel_length_config(ADC0, ADC_REGULAR_CHANNEL, 1);            // Convert one channel
GAS LISTING C:\Users\zanil\AppData\Local\Temp\ccBp1gMa.s 			page 3


  87              		.loc 1 17 5
  88 009e 0546     		li	a2,1
  89 00a0 8545     		li	a1,1
  90 00a2 13050440 		addi	a0,s0,1024
  91 00a6 97000000 		call	adc_channel_length_config
  91      E7800000 
  92              	.LVL12:
  18:adc.c         **** 
  19:adc.c         ****     adc_regular_channel_config(ADC0, 0, ADC_CHANNEL_3, 
  93              		.loc 1 19 5
  94 00ae 8946     		li	a3,2
  95 00b0 0D46     		li	a2,3
  96 00b2 8145     		li	a1,0
  97 00b4 13050440 		addi	a0,s0,1024
  98 00b8 97000000 		call	adc_regular_channel_config
  98      E7800000 
  99              	.LVL13:
  20:adc.c         ****                                ADC_SAMPLETIME_13POINT5);                // Conv. takes 13.5us
  21:adc.c         ****     adc_external_trigger_source_config(ADC0, ADC_REGULAR_CHANNEL, 
 100              		.loc 1 21 5
 101 00c0 37060E00 		li	a2,917504
 102 00c4 8545     		li	a1,1
 103 00c6 13050440 		addi	a0,s0,1024
 104 00ca 97000000 		call	adc_external_trigger_source_config
 104      E7800000 
 105              	.LVL14:
  22:adc.c         ****                                        ADC0_1_EXTTRIG_REGULAR_NONE);    // SW Trigger
  23:adc.c         ****     adc_external_trigger_config(ADC0, ADC_REGULAR_CHANNEL, ENABLE);     // Enable trigger
 106              		.loc 1 23 5
 107 00d2 0546     		li	a2,1
 108 00d4 8545     		li	a1,1
 109 00d6 13050440 		addi	a0,s0,1024
 110 00da 97000000 		call	adc_external_trigger_config
 110      E7800000 
 111              	.LVL15:
  24:adc.c         **** 
  25:adc.c         ****     if (tmp) {                                                          // Add Ch16 Temp?
 112              		.loc 1 25 5
 113              		.loc 1 25 8 is_stmt 0
 114 00e2 9DCC     		beq	s1,zero,.L2
  26:adc.c         ****         adc_special_function_config(ADC0, ADC_INSERTED_CHANNEL_AUTO, ENABLE);
 115              		.loc 1 26 9 is_stmt 1
 116 00e4 0546     		li	a2,1
 117 00e6 93050040 		li	a1,1024
 118 00ea 13050440 		addi	a0,s0,1024
 119 00ee 97000000 		call	adc_special_function_config
 119      E7800000 
 120              	.LVL16:
  27:adc.c         ****         adc_channel_length_config(ADC0, ADC_INSERTED_CHANNEL, 1);
 121              		.loc 1 27 9
 122 00f6 0546     		li	a2,1
 123 00f8 8945     		li	a1,2
 124 00fa 13050440 		addi	a0,s0,1024
 125 00fe 97000000 		call	adc_channel_length_config
 125      E7800000 
 126              	.LVL17:
  28:adc.c         ****         adc_tempsensor_vrefint_enable();  
GAS LISTING C:\Users\zanil\AppData\Local\Temp\ccBp1gMa.s 			page 4


 127              		.loc 1 28 9
 128 0106 97000000 		call	adc_tempsensor_vrefint_enable
 128      E7800000 
 129              	.LVL18:
  29:adc.c         ****         //adc_inserted_channel_config(ADC0, 0, ADC_CHANNEL_16, ADC_SAMPLETIME_239POINT5);
  30:adc.c         ****         adc_inserted_channel_config(ADC0, 0, ADC_CHANNEL_17, ADC_SAMPLETIME_239POINT5); //!SWIM!
 130              		.loc 1 30 9
 131 010e 9D46     		li	a3,7
 132 0110 4546     		li	a2,17
 133 0112 8145     		li	a1,0
 134 0114 13050440 		addi	a0,s0,1024
 135 0118 97000000 		call	adc_inserted_channel_config
 135      E7800000 
 136              	.LVL19:
 137              	.L2:
  31:adc.c         ****     }
  32:adc.c         **** 
  33:adc.c         ****     adc_enable(ADC0);                                                   // ...enable!...
 138              		.loc 1 33 5
 139 0120 37240140 		li	s0,1073815552
 140 0124 13050440 		addi	a0,s0,1024
 141 0128 97000000 		call	adc_enable
 141      E7800000 
 142              	.LVL20:
  34:adc.c         ****     //delay_1ms(1);
  35:adc.c         ****     for (int i=0; i<0xFFFF; i++);                                       // ...wait 1ms...
 143              		.loc 1 35 5
 144              		.loc 1 35 10
  36:adc.c         ****     adc_calibration_enable(ADC0);                                       // ...calibrate...
 145              		.loc 1 36 5
 146 0130 13050440 		addi	a0,s0,1024
 147 0134 97000000 		call	adc_calibration_enable
 147      E7800000 
 148              	.LVL21:
  37:adc.c         ****     //delay_1ms(1);                                                     // ...wait 1ms...
  38:adc.c         ****     for (int i=0; i<0xFFFF; i++);
 149              		.loc 1 38 5
 150              		.loc 1 38 10
  39:adc.c         ****     adc_software_trigger_enable(ADC0, ADC_REGULAR_CHANNEL);             // ...trigger 1:st conv!
 151              		.loc 1 39 5
 152 013c 13050440 		addi	a0,s0,1024
  40:adc.c         **** }...
 153              		.loc 1 40 1 is_stmt 0
 154 0140 2244     		lw	s0,8(sp)
 155              		.cfi_restore 8
 156 0142 B240     		lw	ra,12(sp)
 157              		.cfi_restore 1
 158 0144 9244     		lw	s1,4(sp)
 159              		.cfi_restore 9
 160              	.LVL22:
  39:adc.c         ****     adc_software_trigger_enable(ADC0, ADC_REGULAR_CHANNEL);             // ...trigger 1:st conv!
 161              		.loc 1 39 5
 162 0146 8545     		li	a1,1
 163              		.loc 1 40 1
 164 0148 4101     		addi	sp,sp,16
 165              	.LCFI1:
 166              		.cfi_def_cfa_offset 0
GAS LISTING C:\Users\zanil\AppData\Local\Temp\ccBp1gMa.s 			page 5


  39:adc.c         ****     adc_software_trigger_enable(ADC0, ADC_REGULAR_CHANNEL);             // ...trigger 1:st conv!
 167              		.loc 1 39 5
 168 014a 17030000 		tail	adc_software_trigger_enable
 168      67000300 
 169              	.LVL23:
 170              		.cfi_endproc
 171              	.LFE2:
 173              		.text
 174              	.Letext0:
 175              		.file 2 "c:\\kth\\digtal teknik\\risc1\\toolchain-gd32v-v202-win\\compiler\\riscv64-unknown-elf\\i
 176              		.file 3 "c:\\kth\\digtal teknik\\risc1\\toolchain-gd32v-v202-win\\compiler\\riscv64-unknown-elf\\i
 177              		.file 4 "./../../firmware/GD32VF103_standard_peripheral/gd32vf103.h"
 178              		.file 5 "./../../firmware/GD32VF103_standard_peripheral/Include/gd32vf103_rcu.h"
 179              		.file 6 "./../../firmware/GD32VF103_standard_peripheral/Include/gd32vf103_gpio.h"
 180              		.file 7 "./../../firmware/GD32VF103_standard_peripheral/Include/gd32vf103_adc.h"
 181              		.file 8 "./../../firmware/GD32VF103_standard_peripheral/system_gd32vf103.h"
GAS LISTING C:\Users\zanil\AppData\Local\Temp\ccBp1gMa.s 			page 6

