GAS LISTING C:\Users\zanil\AppData\Local\Temp\ccSpX1Ft.s 			page 1


   1              		.file	"main.c"
   2              		.option nopic
   3              		.attribute arch, "rv32i2p0_m2p0_a2p0_c2p0"
   4              		.attribute unaligned_access, 0
   5              		.attribute stack_align, 16
   6              		.text
   7              	.Ltext0:
   8              		.cfi_sections	.debug_frame
   9              		.section	.text.startup.main,"ax",@progbits
  10              		.align	1
  11              		.globl	main
  13              	main:
  14              	.LFB2:
  15              		.file 1 "main.c"
   1:main.c        **** #include "gd32vf103.h"
   2:main.c        **** #include "drivers.h"
   3:main.c        **** #include "adc.h"
   4:main.c        **** #include "dac.h"
   5:main.c        **** 
   6:main.c        **** int main(void){
  16              		.loc 1 6 15
  17              		.cfi_startproc
   7:main.c        ****     int ms=0, s=0, key, pKey=-1, c=0, idle=0, adcr, tmpr;
  18              		.loc 1 7 5
  19              	.LVL0:
   8:main.c        ****     int lookUpTbl[16]={1,4,7,14,2,5,8,0,3,6,9,15,10,11,12,13};
  20              		.loc 1 8 5
   6:main.c        ****     int ms=0, s=0, key, pKey=-1, c=0, idle=0, adcr, tmpr;
  21              		.loc 1 6 15 is_stmt 0
  22 0000 5971     		addi	sp,sp,-112
  23              	.LCFI0:
  24              		.cfi_def_cfa_offset 112
  25              		.loc 1 8 9
  26 0002 B7050000 		lui	a1,%hi(.LANCHOR0)
  27 0006 13060004 		li	a2,64
  28 000a 93850500 		addi	a1,a1,%lo(.LANCHOR0)
  29 000e 0A85     		mv	a0,sp
   6:main.c        ****     int ms=0, s=0, key, pKey=-1, c=0, idle=0, adcr, tmpr;
  30              		.loc 1 6 15
  31 0010 86D6     		sw	ra,108(sp)
  32 0012 A2D4     		sw	s0,104(sp)
  33 0014 CAD0     		sw	s2,96(sp)
  34 0016 CECE     		sw	s3,92(sp)
  35 0018 D6CA     		sw	s5,84(sp)
  36 001a DAC8     		sw	s6,80(sp)
  37 001c DEC6     		sw	s7,76(sp)
  38 001e E2C4     		sw	s8,72(sp)
  39 0020 A6D2     		sw	s1,100(sp)
  40 0022 D2CC     		sw	s4,88(sp)
  41              		.cfi_offset 1, -4
  42              		.cfi_offset 8, -8
  43              		.cfi_offset 18, -16
  44              		.cfi_offset 19, -20
  45              		.cfi_offset 21, -28
  46              		.cfi_offset 22, -32
  47              		.cfi_offset 23, -36
  48              		.cfi_offset 24, -40
GAS LISTING C:\Users\zanil\AppData\Local\Temp\ccSpX1Ft.s 			page 2


  49              		.cfi_offset 9, -12
  50              		.cfi_offset 20, -24
  51              		.loc 1 8 9
  52 0024 97000000 		call	memcpy
  52      E7800000 
  53              	.LVL1:
   9:main.c        **** 
  10:main.c        ****     t5omsi();                                     // Initialize timer5 1kHz
  54              		.loc 1 10 5 is_stmt 1
  55 002c 97000000 		call	t5omsi
  55      E7800000 
  56              	.LVL2:
  11:main.c        ****     colinit();                                    // Initialize column toolbox
  57              		.loc 1 11 5
  58 0034 97000000 		call	colinit
  58      E7800000 
  59              	.LVL3:
  12:main.c        ****     l88init();                                    // Initialize 8*8 led toolbox
  60              		.loc 1 12 5
  61 003c 97000000 		call	l88init
  61      E7800000 
  62              	.LVL4:
  13:main.c        ****     keyinit();                                    // Initialize keyboard toolbox
  63              		.loc 1 13 5
  64 0044 97000000 		call	keyinit
  64      E7800000 
  65              	.LVL5:
  14:main.c        ****     ADC3powerUpInit(0);                           // Initialize ADC0, Ch3, GPIOA3
  66              		.loc 1 14 5
  67 004c 0145     		li	a0,0
  15:main.c        ****     DAC0powerUpInit();                            // Initialize DAC0, GPIOA4.
  16:main.c        **** 
  17:main.c        ****     while (1) {
  18:main.c        ****         idle++;                                   // Manage Async events
  19:main.c        **** 
  20:main.c        ****         if (adc_flag_get(ADC0,ADC_FLAG_EOC)==SET) { // ...ADC done?
  68              		.loc 1 20 13 is_stmt 0
  69 004e 37240140 		li	s0,1073815552
  14:main.c        ****     ADC3powerUpInit(0);                           // Initialize ADC0, Ch3, GPIOA3
  70              		.loc 1 14 5
  71 0052 97000000 		call	ADC3powerUpInit
  71      E7800000 
  72              	.LVL6:
  15:main.c        ****     DAC0powerUpInit();                            // Initialize DAC0, GPIOA4.
  73              		.loc 1 15 5 is_stmt 1
   7:main.c        ****     int lookUpTbl[16]={1,4,7,14,2,5,8,0,3,6,9,15,10,11,12,13};
  74              		.loc 1 7 34 is_stmt 0
  75 005a 8149     		li	s3,0
  15:main.c        ****     DAC0powerUpInit();                            // Initialize DAC0, GPIOA4.
  76              		.loc 1 15 5
  77 005c 97000000 		call	DAC0powerUpInit
  77      E7800000 
  78              	.LVL7:
   7:main.c        ****     int lookUpTbl[16]={1,4,7,14,2,5,8,0,3,6,9,15,10,11,12,13};
  79              		.loc 1 7 25
  80 0064 7D5C     		li	s8,-1
   7:main.c        ****     int lookUpTbl[16]={1,4,7,14,2,5,8,0,3,6,9,15,10,11,12,13};
GAS LISTING C:\Users\zanil\AppData\Local\Temp\ccSpX1Ft.s 			page 3


  81              		.loc 1 7 15
  82 0066 814A     		li	s5,0
   7:main.c        ****     int lookUpTbl[16]={1,4,7,14,2,5,8,0,3,6,9,15,10,11,12,13};
  83              		.loc 1 7 9
  84 0068 0149     		li	s2,0
  85              		.loc 1 20 13
  86 006a 13040440 		addi	s0,s0,1024
  87              		.loc 1 20 12
  88 006e 054B     		li	s6,1
  21:main.c        ****             adcr = adc_regular_data_read(ADC0);   // ........get data
  22:main.c        ****             l88mem(4,adcr&0xFF);                  // ........DBG 8*8
  23:main.c        ****             l88mem(5,adcr>>8);                    // ........row 4/5
  24:main.c        ****             DAC0set(adcr);                        // ........put data!
  25:main.c        ****             adc_flag_clear(ADC0, ADC_FLAG_EOC);   // ........clear IF
  26:main.c        ****         }
  27:main.c        ****  
  28:main.c        ****         if (t5expq()) {                           // Manage periodic tasks
  29:main.c        ****             l88row(colset());                     // ...8*8LED and Keyboard
  30:main.c        ****             ms++;                                 // ...One second heart beat
  31:main.c        ****             if (ms==1000){
  89              		.loc 1 31 16
  90 0070 930B803E 		li	s7,1000
  91              	.LVL8:
  92              	.L7:
   7:main.c        ****     int lookUpTbl[16]={1,4,7,14,2,5,8,0,3,6,9,15,10,11,12,13};
  93              		.loc 1 7 9
  94 0074 8144     		li	s1,0
  95              	.LVL9:
  96              	.L3:
  17:main.c        ****         idle++;                                   // Manage Async events
  97              		.loc 1 17 5 is_stmt 1
  18:main.c        **** 
  98              		.loc 1 18 9
  20:main.c        ****             adcr = adc_regular_data_read(ADC0);   // ........get data
  99              		.loc 1 20 13 is_stmt 0
 100 0076 8945     		li	a1,2
 101 0078 2285     		mv	a0,s0
  18:main.c        **** 
 102              		.loc 1 18 13
 103 007a 8504     		addi	s1,s1,1
 104              	.LVL10:
  20:main.c        ****             adcr = adc_regular_data_read(ADC0);   // ........get data
 105              		.loc 1 20 9 is_stmt 1
  20:main.c        ****             adcr = adc_regular_data_read(ADC0);   // ........get data
 106              		.loc 1 20 13 is_stmt 0
 107 007c 97000000 		call	adc_flag_get
 107      E7800000 
 108              	.LVL11:
  20:main.c        ****             adcr = adc_regular_data_read(ADC0);   // ........get data
 109              		.loc 1 20 12
 110 0084 63116505 		bne	a0,s6,.L2
  21:main.c        ****             l88mem(4,adcr&0xFF);                  // ........DBG 8*8
 111              		.loc 1 21 13 is_stmt 1
  21:main.c        ****             l88mem(4,adcr&0xFF);                  // ........DBG 8*8
 112              		.loc 1 21 20 is_stmt 0
 113 0088 2285     		mv	a0,s0
 114 008a 97000000 		call	adc_regular_data_read
GAS LISTING C:\Users\zanil\AppData\Local\Temp\ccSpX1Ft.s 			page 4


 114      E7800000 
 115              	.LVL12:
 116 0092 2A8A     		mv	s4,a0
 117              	.LVL13:
  22:main.c        ****             l88mem(5,adcr>>8);                    // ........row 4/5
 118              		.loc 1 22 13 is_stmt 1
 119 0094 9375F50F 		andi	a1,a0,0xff
 120 0098 1145     		li	a0,4
 121              	.LVL14:
 122 009a 97000000 		call	l88mem
 122      E7800000 
 123              	.LVL15:
  23:main.c        ****             DAC0set(adcr);                        // ........put data!
 124              		.loc 1 23 13
 125 00a2 93558A40 		srai	a1,s4,8
 126 00a6 1545     		li	a0,5
 127 00a8 97000000 		call	l88mem
 127      E7800000 
 128              	.LVL16:
  24:main.c        ****             adc_flag_clear(ADC0, ADC_FLAG_EOC);   // ........clear IF
 129              		.loc 1 24 13
 130 00b0 5285     		mv	a0,s4
 131 00b2 97000000 		call	DAC0set
 131      E7800000 
 132              	.LVL17:
  25:main.c        ****         }
 133              		.loc 1 25 13
 134 00ba 8945     		li	a1,2
 135 00bc 2285     		mv	a0,s0
 136 00be 97000000 		call	adc_flag_clear
 136      E7800000 
 137              	.LVL18:
 138              	.L2:
  28:main.c        ****             l88row(colset());                     // ...8*8LED and Keyboard
 139              		.loc 1 28 9
  28:main.c        ****             l88row(colset());                     // ...8*8LED and Keyboard
 140              		.loc 1 28 13 is_stmt 0
 141 00c6 97000000 		call	t5expq
 141      E7800000 
 142              	.LVL19:
  28:main.c        ****             l88row(colset());                     // ...8*8LED and Keyboard
 143              		.loc 1 28 12
 144 00ce 45D5     		beq	a0,zero,.L3
  29:main.c        ****             ms++;                                 // ...One second heart beat
 145              		.loc 1 29 13 is_stmt 1
 146 00d0 97000000 		call	colset
 146      E7800000 
 147              	.LVL20:
  30:main.c        ****             if (ms==1000){
 148              		.loc 1 30 15 is_stmt 0
 149 00d8 0509     		addi	s2,s2,1
 150              	.LVL21:
  29:main.c        ****             ms++;                                 // ...One second heart beat
 151              		.loc 1 29 13
 152 00da 97000000 		call	l88row
 152      E7800000 
 153              	.LVL22:
GAS LISTING C:\Users\zanil\AppData\Local\Temp\ccSpX1Ft.s 			page 5


  30:main.c        ****             if (ms==1000){
 154              		.loc 1 30 13 is_stmt 1
 155              		.loc 1 31 13
 156              		.loc 1 31 16 is_stmt 0
 157 00e2 631C7901 		bne	s2,s7,.L4
  32:main.c        ****               ms=0;
 158              		.loc 1 32 15 is_stmt 1
 159              	.LVL23:
  33:main.c        ****               l88mem(0,s++);
 160              		.loc 1 33 15
 161 00e6 13891A00 		addi	s2,s5,1
 162              	.LVL24:
 163 00ea D685     		mv	a1,s5
 164 00ec 0145     		li	a0,0
 165 00ee CA8A     		mv	s5,s2
 166 00f0 97000000 		call	l88mem
 166      E7800000 
 167              	.LVL25:
  32:main.c        ****               ms=0;
 168              		.loc 1 32 17 is_stmt 0
 169 00f8 0149     		li	s2,0
 170              	.LVL26:
 171              	.L4:
  34:main.c        ****             }
  35:main.c        ****             if ((key=keyscan())>=0) {             // ...Any key pressed?
 172              		.loc 1 35 13 is_stmt 1
 173              		.loc 1 35 22 is_stmt 0
 174 00fa 97000000 		call	keyscan
 174      E7800000 
 175              	.LVL27:
 176 0102 2A8A     		mv	s4,a0
 177              	.LVL28:
 178              		.loc 1 35 16
 179 0104 63450502 		blt	a0,zero,.L5
  36:main.c        ****               if (pKey==key) c++; else {c=0; pKey=key;}
 180              		.loc 1 36 15 is_stmt 1
 181              		.loc 1 36 31 is_stmt 0
 182 0108 8509     		addi	s3,s3,1
 183              	.LVL29:
 184              		.loc 1 36 18
 185 010a 6303AC00 		beq	s8,a0,.L6
 186              		.loc 1 36 42
 187 010e 8149     		li	s3,0
 188              	.LVL30:
 189              	.L6:
  37:main.c        ****               l88mem(1,lookUpTbl[key]+(c<<4));
 190              		.loc 1 37 15 is_stmt 1
 191              		.loc 1 37 33 is_stmt 0
 192 0110 9800     		addi	a4,sp,64
 193 0112 93172A00 		slli	a5,s4,2
 194 0116 BA97     		add	a5,a4,a5
 195              		.loc 1 37 15
 196 0118 83A707FC 		lw	a5,-64(a5)
 197              		.loc 1 37 41
 198 011c 93954900 		slli	a1,s3,4
 199              		.loc 1 37 15
 200 0120 0545     		li	a0,1
GAS LISTING C:\Users\zanil\AppData\Local\Temp\ccSpX1Ft.s 			page 6


 201              	.LVL31:
 202 0122 BE95     		add	a1,a1,a5
 203 0124 97000000 		call	l88mem
 203      E7800000 
 204              	.LVL32:
 205 012c 528C     		mv	s8,s4
 206              	.LVL33:
 207              	.L5:
  38:main.c        ****             }
  39:main.c        ****             l88mem(2,idle>>8);                    // ...Performance monitor
 208              		.loc 1 39 13 is_stmt 1
 209 012e 93D58440 		srai	a1,s1,8
 210 0132 0945     		li	a0,2
 211 0134 97000000 		call	l88mem
 211      E7800000 
 212              	.LVL34:
  40:main.c        ****             l88mem(3,idle); idle=0;
 213              		.loc 1 40 13
 214 013c A685     		mv	a1,s1
 215 013e 0D45     		li	a0,3
 216 0140 97000000 		call	l88mem
 216      E7800000 
 217              	.LVL35:
 218              		.loc 1 40 29
  41:main.c        ****             adc_software_trigger_enable(ADC0,     //Trigger another ADC conversion
 219              		.loc 1 41 13
 220 0148 8545     		li	a1,1
 221 014a 2285     		mv	a0,s0
 222 014c 97000000 		call	adc_software_trigger_enable
 222      E7800000 
 223              	.LVL36:
 224 0154 05B7     		j	.L7
 225              		.cfi_endproc
 226              	.LFE2:
 228              		.section	.rodata
 229              		.align	2
 230              		.set	.LANCHOR0,. + 0
 231              	.LC0:
 232 0000 01000000 		.word	1
 233 0004 04000000 		.word	4
 234 0008 07000000 		.word	7
 235 000c 0E000000 		.word	14
 236 0010 02000000 		.word	2
 237 0014 05000000 		.word	5
 238 0018 08000000 		.word	8
 239 001c 00000000 		.word	0
 240 0020 03000000 		.word	3
 241 0024 06000000 		.word	6
 242 0028 09000000 		.word	9
 243 002c 0F000000 		.word	15
 244 0030 0A000000 		.word	10
 245 0034 0B000000 		.word	11
 246 0038 0C000000 		.word	12
 247 003c 0D000000 		.word	13
 248              		.text
 249              	.Letext0:
 250              		.file 2 "c:\\kth\\digtal teknik\\risc1\\toolchain-gd32v-v202-win\\compiler\\riscv64-unknown-elf\\i
GAS LISTING C:\Users\zanil\AppData\Local\Temp\ccSpX1Ft.s 			page 7


 251              		.file 3 "c:\\kth\\digtal teknik\\risc1\\toolchain-gd32v-v202-win\\compiler\\riscv64-unknown-elf\\i
 252              		.file 4 "drivers.h"
 253              		.file 5 "adc.h"
 254              		.file 6 "dac.h"
 255              		.file 7 "./../../firmware/GD32VF103_standard_peripheral/Include/gd32vf103_adc.h"
 256              		.file 8 "./../../firmware/GD32VF103_standard_peripheral/system_gd32vf103.h"
 257              		.file 9 "./../../firmware/GD32VF103_standard_peripheral/gd32vf103.h"
 258              		.file 10 "<built-in>"
GAS LISTING C:\Users\zanil\AppData\Local\Temp\ccSpX1Ft.s 			page 8

