GAS LISTING C:\Users\zanil\AppData\Local\Temp\ccswJdiF.s 			page 1


   1              		.file	"alarm.c"
   2              		.option nopic
   3              		.attribute arch, "rv32i2p0_m2p0_a2p0_c2p0"
   4              		.attribute unaligned_access, 0
   5              		.attribute stack_align, 16
   6              		.text
   7              	.Ltext0:
   8              		.cfi_sections	.debug_frame
   9              		.section	.text.alnit,"ax",@progbits
  10              		.align	1
  11              		.globl	alnit
  13              	alnit:
  14              	.LFB2:
  15              		.file 1 "alarm.c"
   1:alarm.c       **** #include "pwm.h"
   2:alarm.c       **** 
   3:alarm.c       **** void alnit(uint16_t ch){
  16              		.loc 1 3 24
  17              		.cfi_startproc
  18              	.LVL0:
   4:alarm.c       ****     timer_oc_parameter_struct timer_ocinitpara;
  19              		.loc 1 4 5
   5:alarm.c       ****     timer_parameter_struct timer_initpara;
  20              		.loc 1 5 5
   6:alarm.c       ****     rcu_periph_clock_enable(RCU_GPIOA);
  21              		.loc 1 6 5
   3:alarm.c       ****     timer_parameter_struct timer_initpara;
  22              		.loc 1 3 24 is_stmt 0
  23 0000 7971     		addi	sp,sp,-48
  24              	.LCFI0:
  25              		.cfi_def_cfa_offset 48
  26 0002 22D4     		sw	s0,40(sp)
  27              		.cfi_offset 8, -8
  28 0004 2A84     		mv	s0,a0
  29              		.loc 1 6 5
  30 0006 13052060 		li	a0,1538
  31              	.LVL1:
   3:alarm.c       ****     timer_parameter_struct timer_initpara;
  32              		.loc 1 3 24
  33 000a 06D6     		sw	ra,44(sp)
  34 000c 26D2     		sw	s1,36(sp)
  35              		.cfi_offset 1, -4
  36              		.cfi_offset 9, -12
  37              		.loc 1 6 5
  38 000e 97000000 		call	rcu_periph_clock_enable
  38      E7800000 
  39              	.LVL2:
   7:alarm.c       ****     rcu_periph_clock_enable(RCU_AF);
  40              		.loc 1 7 5 is_stmt 1
  41 0016 13050060 		li	a0,1536
  42 001a 93741400 		andi	s1,s0,1
  43 001e 97000000 		call	rcu_periph_clock_enable
  43      E7800000 
  44              	.LVL3:
   8:alarm.c       ****     if (ch&0x1) gpio_init(GPIOA, GPIO_MODE_AF_PP, GPIO_OSPEED_50MHZ, GPIO_PIN_0);
  45              		.loc 1 8 5
  46              		.loc 1 8 8 is_stmt 0
GAS LISTING C:\Users\zanil\AppData\Local\Temp\ccswJdiF.s 			page 2


  47 0026 81CC     		beq	s1,zero,.L2
  48              		.loc 1 8 17 is_stmt 1 discriminator 1
  49 0028 37150140 		li	a0,1073811456
  50 002c 8546     		li	a3,1
  51 002e 0D46     		li	a2,3
  52 0030 E145     		li	a1,24
  53 0032 13050580 		addi	a0,a0,-2048
  54 0036 97000000 		call	gpio_init
  54      E7800000 
  55              	.LVL4:
  56              	.L2:
   9:alarm.c       ****     if (ch&0x2) gpio_init(GPIOA, GPIO_MODE_AF_PP, GPIO_OSPEED_50MHZ, GPIO_PIN_1);
  57              		.loc 1 9 5
  58 003e 0988     		andi	s0,s0,2
  59              		.loc 1 9 8 is_stmt 0
  60 0040 01CC     		beq	s0,zero,.L3
  61              		.loc 1 9 17 is_stmt 1 discriminator 1
  62 0042 37150140 		li	a0,1073811456
  63 0046 8946     		li	a3,2
  64 0048 0D46     		li	a2,3
  65 004a E145     		li	a1,24
  66 004c 13050580 		addi	a0,a0,-2048
  67 0050 97000000 		call	gpio_init
  67      E7800000 
  68              	.LVL5:
  69              	.L3:
  10:alarm.c       ****     rcu_periph_clock_enable(RCU_TIMER1);
  70              		.loc 1 10 5
  71 0058 13050070 		li	a0,1792
  72 005c 97000000 		call	rcu_periph_clock_enable
  72      E7800000 
  73              	.LVL6:
  11:alarm.c       **** 
  12:alarm.c       ****     timer_deinit(TIMER1);
  74              		.loc 1 12 5
  75 0064 37050040 		li	a0,1073741824
  76 0068 97000000 		call	timer_deinit
  76      E7800000 
  77              	.LVL7:
  13:alarm.c       ****     timer_struct_para_init(&timer_initpara);
  78              		.loc 1 13 5
  79 0070 0808     		addi	a0,sp,16
  80 0072 97000000 		call	timer_struct_para_init
  80      E7800000 
  81              	.LVL8:
  14:alarm.c       ****     timer_initpara.prescaler         = 107;
  82              		.loc 1 14 5
  15:alarm.c       ****     timer_initpara.alignedmode       = TIMER_COUNTER_EDGE;
  83              		.loc 1 15 5
  16:alarm.c       ****     timer_initpara.counterdirection  = TIMER_COUNTER_UP;
  84              		.loc 1 16 5
  14:alarm.c       ****     timer_initpara.prescaler         = 107;
  85              		.loc 1 14 38 is_stmt 0
  86 007a 9307B006 		li	a5,107
  87 007e 3EC8     		sw	a5,16(sp)
  17:alarm.c       ****     timer_initpara.period            = 15999;
  88              		.loc 1 17 38
GAS LISTING C:\Users\zanil\AppData\Local\Temp\ccswJdiF.s 			page 3


  89 0080 9167     		li	a5,16384
  90 0082 9387F7E7 		addi	a5,a5,-385
  18:alarm.c       ****     timer_initpara.clockdivision     = TIMER_CKDIV_DIV1;
  19:alarm.c       ****     timer_initpara.repetitioncounter = 0;
  20:alarm.c       ****     timer_init(TIMER1, &timer_initpara);
  91              		.loc 1 20 5
  92 0086 0C08     		addi	a1,sp,16
  93 0088 37050040 		li	a0,1073741824
  17:alarm.c       ****     timer_initpara.period            = 15999;
  94              		.loc 1 17 38
  95 008c 3ECC     		sw	a5,24(sp)
  16:alarm.c       ****     timer_initpara.period            = 15999;
  96              		.loc 1 16 38
  97 008e 231A0100 		sh	zero,20(sp)
  17:alarm.c       ****     timer_initpara.period            = 15999;
  98              		.loc 1 17 5 is_stmt 1
  18:alarm.c       ****     timer_initpara.clockdivision     = TIMER_CKDIV_DIV1;
  99              		.loc 1 18 5
  18:alarm.c       ****     timer_initpara.clockdivision     = TIMER_CKDIV_DIV1;
 100              		.loc 1 18 38 is_stmt 0
 101 0092 231E0100 		sh	zero,28(sp)
  19:alarm.c       ****     timer_init(TIMER1, &timer_initpara);
 102              		.loc 1 19 5 is_stmt 1
  19:alarm.c       ****     timer_init(TIMER1, &timer_initpara);
 103              		.loc 1 19 38 is_stmt 0
 104 0096 230F0100 		sb	zero,30(sp)
 105              		.loc 1 20 5 is_stmt 1
 106 009a 97000000 		call	timer_init
 106      E7800000 
 107              	.LVL9:
  21:alarm.c       **** 
  22:alarm.c       ****     timer_channel_output_struct_para_init(&timer_ocinitpara);
 108              		.loc 1 22 5
 109 00a2 4800     		addi	a0,sp,4
 110 00a4 97000000 		call	timer_channel_output_struct_para_init
 110      E7800000 
 111              	.LVL10:
  23:alarm.c       ****     timer_ocinitpara.outputstate  = TIMER_CCX_ENABLE;
 112              		.loc 1 23 5
  24:alarm.c       ****     timer_ocinitpara.outputnstate = TIMER_CCXN_DISABLE;
 113              		.loc 1 24 5
  25:alarm.c       ****     timer_ocinitpara.ocpolarity   = TIMER_OC_POLARITY_HIGH;
 114              		.loc 1 25 5
  26:alarm.c       ****     timer_ocinitpara.ocnpolarity  = TIMER_OCN_POLARITY_HIGH;
 115              		.loc 1 26 5
  27:alarm.c       ****     timer_ocinitpara.ocidlestate  = TIMER_OC_IDLE_STATE_LOW;
 116              		.loc 1 27 5
  28:alarm.c       ****     timer_ocinitpara.ocnidlestate = TIMER_OCN_IDLE_STATE_LOW;
 117              		.loc 1 28 5
  23:alarm.c       ****     timer_ocinitpara.outputnstate = TIMER_CCXN_DISABLE;
 118              		.loc 1 23 35 is_stmt 0
 119 00ac 8547     		li	a5,1
 120 00ae 3EC2     		sw	a5,4(sp)
  25:alarm.c       ****     timer_ocinitpara.ocnpolarity  = TIMER_OCN_POLARITY_HIGH;
 121              		.loc 1 25 35
 122 00b0 02C4     		sw	zero,8(sp)
  27:alarm.c       ****     timer_ocinitpara.ocnidlestate = TIMER_OCN_IDLE_STATE_LOW;
GAS LISTING C:\Users\zanil\AppData\Local\Temp\ccswJdiF.s 			page 4


 123              		.loc 1 27 35
 124 00b2 02C6     		sw	zero,12(sp)
  29:alarm.c       ****     if (ch&0x1) timer_channel_output_config(TIMER1,TIMER_CH_0,&timer_ocinitpara);
 125              		.loc 1 29 5 is_stmt 1
 126              		.loc 1 29 8 is_stmt 0
 127 00b4 D5C0     		beq	s1,zero,.L4
 128              		.loc 1 29 17 is_stmt 1 discriminator 1
 129 00b6 5000     		addi	a2,sp,4
 130 00b8 8145     		li	a1,0
 131 00ba 37050040 		li	a0,1073741824
 132 00be 97000000 		call	timer_channel_output_config
 132      E7800000 
 133              	.LVL11:
  30:alarm.c       ****     if (ch&0x2) timer_channel_output_config(TIMER1,TIMER_CH_1,&timer_ocinitpara);
 134              		.loc 1 30 5 discriminator 1
 135              		.loc 1 30 8 is_stmt 0 discriminator 1
 136 00c6 51E8     		bne	s0,zero,.L5
 137              	.L8:
  31:alarm.c       **** 
  32:alarm.c       ****     if (ch&0x1) {
  33:alarm.c       ****         timer_channel_output_pulse_value_config(TIMER1,TIMER_CH_0,11999);
 138              		.loc 1 33 9 is_stmt 1
 139 00c8 0D66     		li	a2,12288
 140 00ca 1306F6ED 		addi	a2,a2,-289
 141 00ce 8145     		li	a1,0
 142 00d0 37050040 		li	a0,1073741824
 143 00d4 97000000 		call	timer_channel_output_pulse_value_config
 143      E7800000 
 144              	.LVL12:
  34:alarm.c       ****         timer_channel_output_mode_config(TIMER1,TIMER_CH_0,TIMER_OC_MODE_PWM0);
 145              		.loc 1 34 9
 146 00dc 13060006 		li	a2,96
 147 00e0 8145     		li	a1,0
 148 00e2 37050040 		li	a0,1073741824
 149 00e6 97000000 		call	timer_channel_output_mode_config
 149      E7800000 
 150              	.LVL13:
  35:alarm.c       ****         timer_channel_output_shadow_config(TIMER1,TIMER_CH_0,TIMER_OC_SHADOW_DISABLE);
 151              		.loc 1 35 9
 152 00ee 0146     		li	a2,0
 153 00f0 8145     		li	a1,0
 154 00f2 37050040 		li	a0,1073741824
 155 00f6 97000000 		call	timer_channel_output_shadow_config
 155      E7800000 
 156              	.LVL14:
  36:alarm.c       ****     }
  37:alarm.c       ****    if (ch&0x2) {
 157              		.loc 1 37 4
 158              		.loc 1 37 7 is_stmt 0
 159 00fe 05CC     		beq	s0,zero,.L9
 160              	.L6:
  38:alarm.c       ****         timer_channel_output_pulse_value_config(TIMER1,TIMER_CH_1,11999);
 161              		.loc 1 38 9 is_stmt 1
 162 0100 0D66     		li	a2,12288
 163 0102 1306F6ED 		addi	a2,a2,-289
 164 0106 8545     		li	a1,1
 165 0108 37050040 		li	a0,1073741824
GAS LISTING C:\Users\zanil\AppData\Local\Temp\ccswJdiF.s 			page 5


 166 010c 97000000 		call	timer_channel_output_pulse_value_config
 166      E7800000 
 167              	.LVL15:
  39:alarm.c       ****         timer_channel_output_mode_config(TIMER1,TIMER_CH_1,TIMER_OC_MODE_PWM0);
 168              		.loc 1 39 9
 169 0114 13060006 		li	a2,96
 170 0118 8545     		li	a1,1
 171 011a 37050040 		li	a0,1073741824
 172 011e 97000000 		call	timer_channel_output_mode_config
 172      E7800000 
 173              	.LVL16:
  40:alarm.c       ****         timer_channel_output_shadow_config(TIMER1,TIMER_CH_1,TIMER_OC_SHADOW_DISABLE);
 174              		.loc 1 40 9
 175 0126 0146     		li	a2,0
 176 0128 8545     		li	a1,1
 177 012a 37050040 		li	a0,1073741824
 178 012e 97000000 		call	timer_channel_output_shadow_config
 178      E7800000 
 179              	.LVL17:
 180              	.L9:
  41:alarm.c       ****     }
  42:alarm.c       ****     
  43:alarm.c       ****     timer_auto_reload_shadow_enable(TIMER1);
 181              		.loc 1 43 5
 182 0136 37050040 		li	a0,1073741824
 183 013a 97000000 		call	timer_auto_reload_shadow_enable
 183      E7800000 
 184              	.LVL18:
  44:alarm.c       ****     timer_enable(TIMER1);
 185              		.loc 1 44 5
 186 0142 37050040 		li	a0,1073741824
 187 0146 97000000 		call	timer_enable
 187      E7800000 
 188              	.LVL19:
  45:alarm.c       **** }
 189              		.loc 1 45 1 is_stmt 0
 190 014e B250     		lw	ra,44(sp)
 191              		.cfi_remember_state
 192              		.cfi_restore 1
 193 0150 2254     		lw	s0,40(sp)
 194              		.cfi_restore 8
 195 0152 9254     		lw	s1,36(sp)
 196              		.cfi_restore 9
 197 0154 4561     		addi	sp,sp,48
 198              	.LCFI1:
 199              		.cfi_def_cfa_offset 0
 200 0156 8280     		jr	ra
 201              	.L4:
 202              	.LCFI2:
 203              		.cfi_restore_state
  30:alarm.c       **** 
 204              		.loc 1 30 5 is_stmt 1
  30:alarm.c       **** 
 205              		.loc 1 30 8 is_stmt 0
 206 0158 79DC     		beq	s0,zero,.L9
 207              	.L5:
  30:alarm.c       **** 
GAS LISTING C:\Users\zanil\AppData\Local\Temp\ccswJdiF.s 			page 6


 208              		.loc 1 30 17 is_stmt 1
 209 015a 5000     		addi	a2,sp,4
 210 015c 8545     		li	a1,1
 211 015e 37050040 		li	a0,1073741824
 212 0162 97000000 		call	timer_channel_output_config
 212      E7800000 
 213              	.LVL20:
  32:alarm.c       ****         timer_channel_output_pulse_value_config(TIMER1,TIMER_CH_0,11999);
 214              		.loc 1 32 5
  32:alarm.c       ****         timer_channel_output_pulse_value_config(TIMER1,TIMER_CH_0,11999);
 215              		.loc 1 32 8 is_stmt 0
 216 016a D9D8     		beq	s1,zero,.L6
 217 016c B1BF     		j	.L8
 218              		.cfi_endproc
 219              	.LFE2:
 221              		.section	.text.aSet,"ax",@progbits
 222              		.align	1
 223              		.globl	aSet
 225              	aSet:
 226              	.LFB3:
  46:alarm.c       **** 
  47:alarm.c       **** void aSet(int on){
 227              		.loc 1 47 18 is_stmt 1
 228              		.cfi_startproc
 229              	.LVL21:
  48:alarm.c       ****     timer_channel_output_pulse_value_config(TIMER1,TIMER_CH_1,on);
 230              		.loc 1 48 5
 231 0000 2A86     		mv	a2,a0
 232 0002 8545     		li	a1,1
 233 0004 37050040 		li	a0,1073741824
 234              	.LVL22:
 235 0008 17030000 		tail	timer_channel_output_pulse_value_config
 235      67000300 
 236              	.LVL23:
 237              		.cfi_endproc
 238              	.LFE3:
 240              		.text
 241              	.Letext0:
 242              		.file 2 "c:\\kth\\digtal teknik\\risc1\\toolchain-gd32v-v202-win\\compiler\\riscv64-unknown-elf\\i
 243              		.file 3 "c:\\kth\\digtal teknik\\risc1\\toolchain-gd32v-v202-win\\compiler\\riscv64-unknown-elf\\i
 244              		.file 4 "./../../firmware/GD32VF103_standard_peripheral/Include/gd32vf103_timer.h"
 245              		.file 5 "./../../firmware/GD32VF103_standard_peripheral/Include/gd32vf103_rcu.h"
 246              		.file 6 "./../../firmware/GD32VF103_standard_peripheral/Include/gd32vf103_gpio.h"
 247              		.file 7 "./../../firmware/GD32VF103_standard_peripheral/system_gd32vf103.h"
GAS LISTING C:\Users\zanil\AppData\Local\Temp\ccswJdiF.s 			page 7

