GAS LISTING C:\Users\zanil\AppData\Local\Temp\ccHlZXb5.s 			page 1


   1              		.file	"main.c"
   2              		.option nopic
   3              		.attribute arch, "rv32i2p0_m2p0_a2p0_c2p0"
   4              		.attribute unaligned_access, 0
   5              		.attribute stack_align, 16
   6              		.text
   7              	.Ltext0:
   8              		.cfi_sections	.debug_frame
   9              		.section	.text.startup.main,"ax",@progbits
  10              		.align	1
  11              		.globl	main
  13              	main:
  14              	.LFB2:
  15              		.file 1 "main.c"
   1:main.c        **** #include "gd32vf103.h"
   2:main.c        **** #include "drivers.h"
   3:main.c        **** #include "pwm.h"
   4:main.c        **** 
   5:main.c        **** int main(void){
  16              		.loc 1 5 15
  17              		.cfi_startproc
   6:main.c        ****     int ms=0, s=0, key, pKey=-1, c=0, idle=0, adcr, tmpr;
  18              		.loc 1 6 5
  19              	.LVL0:
   7:main.c        ****     int lookUpTbl[16]={1,4,7,14,2,5,8,0,3,6,9,15,10,11,12,13};
  20              		.loc 1 7 5
   5:main.c        ****     int ms=0, s=0, key, pKey=-1, c=0, idle=0, adcr, tmpr;
  21              		.loc 1 5 15 is_stmt 0
  22 0000 1D71     		addi	sp,sp,-96
  23              	.LCFI0:
  24              		.cfi_def_cfa_offset 96
  25              		.loc 1 7 9
  26 0002 B7050000 		lui	a1,%hi(.LANCHOR0)
  27 0006 13060004 		li	a2,64
  28 000a 93850500 		addi	a1,a1,%lo(.LANCHOR0)
  29 000e 0A85     		mv	a0,sp
   5:main.c        ****     int ms=0, s=0, key, pKey=-1, c=0, idle=0, adcr, tmpr;
  30              		.loc 1 5 15
  31 0010 86CE     		sw	ra,92(sp)
  32 0012 A6CA     		sw	s1,84(sp)
  33 0014 CAC8     		sw	s2,80(sp)
  34 0016 D2C4     		sw	s4,72(sp)
  35 0018 D6C2     		sw	s5,68(sp)
  36 001a DAC0     		sw	s6,64(sp)
  37 001c A2CC     		sw	s0,88(sp)
  38 001e CEC6     		sw	s3,76(sp)
  39              		.cfi_offset 1, -4
  40              		.cfi_offset 9, -12
  41              		.cfi_offset 18, -16
  42              		.cfi_offset 20, -24
  43              		.cfi_offset 21, -28
  44              		.cfi_offset 22, -32
  45              		.cfi_offset 8, -8
  46              		.cfi_offset 19, -20
  47              		.loc 1 7 9
  48 0020 97000000 		call	memcpy
  48      E7800000 
GAS LISTING C:\Users\zanil\AppData\Local\Temp\ccHlZXb5.s 			page 2


  49              	.LVL1:
   8:main.c        **** 
   9:main.c        ****     t5omsi();                                     // Initialize timer5 1kHz
  50              		.loc 1 9 5 is_stmt 1
  51 0028 97000000 		call	t5omsi
  51      E7800000 
  52              	.LVL2:
  10:main.c        ****     colinit();                                    // Initialize column toolbox
  53              		.loc 1 10 5
   6:main.c        ****     int lookUpTbl[16]={1,4,7,14,2,5,8,0,3,6,9,15,10,11,12,13};
  54              		.loc 1 6 34 is_stmt 0
  55 0030 0149     		li	s2,0
  56              		.loc 1 10 5
  57 0032 97000000 		call	colinit
  57      E7800000 
  58              	.LVL3:
  11:main.c        ****     l88init();                                    // Initialize 8*8 led toolbox
  59              		.loc 1 11 5 is_stmt 1
   6:main.c        ****     int lookUpTbl[16]={1,4,7,14,2,5,8,0,3,6,9,15,10,11,12,13};
  60              		.loc 1 6 25 is_stmt 0
  61 003a FD5A     		li	s5,-1
  62              		.loc 1 11 5
  63 003c 97000000 		call	l88init
  63      E7800000 
  64              	.LVL4:
  12:main.c        ****     keyinit();                                    // Initialize keyboard toolbox
  65              		.loc 1 12 5 is_stmt 1
   6:main.c        ****     int lookUpTbl[16]={1,4,7,14,2,5,8,0,3,6,9,15,10,11,12,13};
  66              		.loc 1 6 15 is_stmt 0
  67 0044 014A     		li	s4,0
  68              		.loc 1 12 5
  69 0046 97000000 		call	keyinit
  69      E7800000 
  70              	.LVL5:
   6:main.c        ****     int lookUpTbl[16]={1,4,7,14,2,5,8,0,3,6,9,15,10,11,12,13};
  71              		.loc 1 6 9
  72 004e 8144     		li	s1,0
  13:main.c        ****     //T1powerUpInitPWM(0x4);                      // Timer #1, Ch #2 PWM
  14:main.c        ****     //T1powerUpInitPWM(0xC);                      // Timer #1, Ch #2 & 3 PWM
  15:main.c        **** 
  16:main.c        ****     while (1) {
  17:main.c        ****         idle++;                                   // Manage Async events
  18:main.c        ****  
  19:main.c        ****         if (t5expq()) {                           // Manage periodic tasks
  20:main.c        ****             l88row(colset());                     // ...8*8LED and Keyboard
  21:main.c        **** 
  22:main.c        ****             ms++;                                 // ...One second heart beat
  23:main.c        ****             if (ms==1000){
  73              		.loc 1 23 16
  74 0050 130B803E 		li	s6,1000
  75              	.LVL6:
  76              	.L6:
   6:main.c        ****     int lookUpTbl[16]={1,4,7,14,2,5,8,0,3,6,9,15,10,11,12,13};
  77              		.loc 1 6 9
  78 0054 0144     		li	s0,0
  79              	.LVL7:
  80              	.L2:
GAS LISTING C:\Users\zanil\AppData\Local\Temp\ccHlZXb5.s 			page 3


  16:main.c        ****         idle++;                                   // Manage Async events
  81              		.loc 1 16 5 is_stmt 1
  17:main.c        ****  
  82              		.loc 1 17 9
  17:main.c        ****  
  83              		.loc 1 17 13 is_stmt 0
  84 0056 0504     		addi	s0,s0,1
  85              	.LVL8:
  19:main.c        ****             l88row(colset());                     // ...8*8LED and Keyboard
  86              		.loc 1 19 9 is_stmt 1
  19:main.c        ****             l88row(colset());                     // ...8*8LED and Keyboard
  87              		.loc 1 19 13 is_stmt 0
  88 0058 97000000 		call	t5expq
  88      E7800000 
  89              	.LVL9:
  19:main.c        ****             l88row(colset());                     // ...8*8LED and Keyboard
  90              		.loc 1 19 12
  91 0060 7DD9     		beq	a0,zero,.L2
  20:main.c        **** 
  92              		.loc 1 20 13 is_stmt 1
  93 0062 97000000 		call	colset
  93      E7800000 
  94              	.LVL10:
  22:main.c        ****             if (ms==1000){
  95              		.loc 1 22 15 is_stmt 0
  96 006a 8504     		addi	s1,s1,1
  97              	.LVL11:
  20:main.c        **** 
  98              		.loc 1 20 13
  99 006c 97000000 		call	l88row
  99      E7800000 
 100              	.LVL12:
  22:main.c        ****             if (ms==1000){
 101              		.loc 1 22 13 is_stmt 1
 102              		.loc 1 23 13
 103              		.loc 1 23 16 is_stmt 0
 104 0074 639C6401 		bne	s1,s6,.L3
  24:main.c        ****               ms=0;
 105              		.loc 1 24 15 is_stmt 1
 106              	.LVL13:
  25:main.c        ****               l88mem(0,s++);
 107              		.loc 1 25 15
 108 0078 93041A00 		addi	s1,s4,1
 109              	.LVL14:
 110 007c D285     		mv	a1,s4
 111 007e 0145     		li	a0,0
 112 0080 268A     		mv	s4,s1
 113 0082 97000000 		call	l88mem
 113      E7800000 
 114              	.LVL15:
  24:main.c        ****               ms=0;
 115              		.loc 1 24 17 is_stmt 0
 116 008a 8144     		li	s1,0
 117              	.LVL16:
 118              	.L3:
  26:main.c        ****             }
  27:main.c        **** 
GAS LISTING C:\Users\zanil\AppData\Local\Temp\ccHlZXb5.s 			page 4


  28:main.c        ****             if ((key=keyscan())>=0) {             // ...Any key pressed?
 119              		.loc 1 28 13 is_stmt 1
 120              		.loc 1 28 22 is_stmt 0
 121 008c 97000000 		call	keyscan
 121      E7800000 
 122              	.LVL17:
 123 0094 AA89     		mv	s3,a0
 124              	.LVL18:
 125              		.loc 1 28 16
 126 0096 63450502 		blt	a0,zero,.L4
  29:main.c        ****               if (pKey==key) c++; else {c=0; pKey=key;}
 127              		.loc 1 29 15 is_stmt 1
 128              		.loc 1 29 31 is_stmt 0
 129 009a 0509     		addi	s2,s2,1
 130              	.LVL19:
 131              		.loc 1 29 18
 132 009c 6383AA00 		beq	s5,a0,.L5
 133              		.loc 1 29 42
 134 00a0 0149     		li	s2,0
 135              	.LVL20:
 136              	.L5:
  30:main.c        ****               l88mem(1,lookUpTbl[key]+(c<<4));
 137              		.loc 1 30 15 is_stmt 1
 138              		.loc 1 30 33 is_stmt 0
 139 00a2 9800     		addi	a4,sp,64
 140 00a4 93972900 		slli	a5,s3,2
 141 00a8 BA97     		add	a5,a4,a5
 142              		.loc 1 30 15
 143 00aa 83A707FC 		lw	a5,-64(a5)
 144              		.loc 1 30 41
 145 00ae 93154900 		slli	a1,s2,4
 146              		.loc 1 30 15
 147 00b2 0545     		li	a0,1
 148              	.LVL21:
 149 00b4 BE95     		add	a1,a1,a5
 150 00b6 97000000 		call	l88mem
 150      E7800000 
 151              	.LVL22:
 152 00be CE8A     		mv	s5,s3
 153              	.LVL23:
 154              	.L4:
  31:main.c        ****             }
  32:main.c        ****             
  33:main.c        ****             l88mem(2,idle>>8);                    // ...Performance monitor
 155              		.loc 1 33 13 is_stmt 1
 156 00c0 93558440 		srai	a1,s0,8
 157 00c4 0945     		li	a0,2
 158 00c6 97000000 		call	l88mem
 158      E7800000 
 159              	.LVL24:
  34:main.c        ****             l88mem(3,idle); idle=0;
 160              		.loc 1 34 13
 161 00ce A285     		mv	a1,s0
 162 00d0 0D45     		li	a0,3
 163 00d2 97000000 		call	l88mem
 163      E7800000 
 164              	.LVL25:
GAS LISTING C:\Users\zanil\AppData\Local\Temp\ccHlZXb5.s 			page 5


 165              		.loc 1 34 29
 166 00da ADBF     		j	.L6
 167              		.cfi_endproc
 168              	.LFE2:
 170              		.section	.rodata
 171              		.align	2
 172              		.set	.LANCHOR0,. + 0
 173              	.LC0:
 174 0000 01000000 		.word	1
 175 0004 04000000 		.word	4
 176 0008 07000000 		.word	7
 177 000c 0E000000 		.word	14
 178 0010 02000000 		.word	2
 179 0014 05000000 		.word	5
 180 0018 08000000 		.word	8
 181 001c 00000000 		.word	0
 182 0020 03000000 		.word	3
 183 0024 06000000 		.word	6
 184 0028 09000000 		.word	9
 185 002c 0F000000 		.word	15
 186 0030 0A000000 		.word	10
 187 0034 0B000000 		.word	11
 188 0038 0C000000 		.word	12
 189 003c 0D000000 		.word	13
 190              		.text
 191              	.Letext0:
 192              		.file 2 "c:\\kth\\digtal teknik\\risc1\\toolchain-gd32v-v202-win\\compiler\\riscv64-unknown-elf\\i
 193              		.file 3 "c:\\kth\\digtal teknik\\risc1\\toolchain-gd32v-v202-win\\compiler\\riscv64-unknown-elf\\i
 194              		.file 4 "drivers.h"
 195              		.file 5 "./../../firmware/GD32VF103_standard_peripheral/system_gd32vf103.h"
 196              		.file 6 "<built-in>"
GAS LISTING C:\Users\zanil\AppData\Local\Temp\ccHlZXb5.s 			page 6


DEFINED SYMBOLS
                            *ABS*:0000000000000000 main.c
C:\Users\zanil\AppData\Local\Temp\ccHlZXb5.s:13     .text.startup.main:0000000000000000 main
C:\Users\zanil\AppData\Local\Temp\ccHlZXb5.s:17     .text.startup.main:0000000000000000 .L0 
C:\Users\zanil\AppData\Local\Temp\ccHlZXb5.s:18     .text.startup.main:0000000000000000 .L0 
C:\Users\zanil\AppData\Local\Temp\ccHlZXb5.s:20     .text.startup.main:0000000000000000 .L0 
C:\Users\zanil\AppData\Local\Temp\ccHlZXb5.s:21     .text.startup.main:0000000000000000 .L0 
C:\Users\zanil\AppData\Local\Temp\ccHlZXb5.s:22     .text.startup.main:0000000000000000 .L0 
C:\Users\zanil\AppData\Local\Temp\ccHlZXb5.s:24     .text.startup.main:0000000000000002 .L0 
C:\Users\zanil\AppData\Local\Temp\ccHlZXb5.s:26     .text.startup.main:0000000000000002 .L0 
C:\Users\zanil\AppData\Local\Temp\ccHlZXb5.s:31     .text.startup.main:0000000000000010 .L0 
C:\Users\zanil\AppData\Local\Temp\ccHlZXb5.s:39     .text.startup.main:0000000000000020 .L0 
C:\Users\zanil\AppData\Local\Temp\ccHlZXb5.s:40     .text.startup.main:0000000000000020 .L0 
C:\Users\zanil\AppData\Local\Temp\ccHlZXb5.s:41     .text.startup.main:0000000000000020 .L0 
C:\Users\zanil\AppData\Local\Temp\ccHlZXb5.s:42     .text.startup.main:0000000000000020 .L0 
C:\Users\zanil\AppData\Local\Temp\ccHlZXb5.s:43     .text.startup.main:0000000000000020 .L0 
C:\Users\zanil\AppData\Local\Temp\ccHlZXb5.s:44     .text.startup.main:0000000000000020 .L0 
C:\Users\zanil\AppData\Local\Temp\ccHlZXb5.s:45     .text.startup.main:0000000000000020 .L0 
C:\Users\zanil\AppData\Local\Temp\ccHlZXb5.s:46     .text.startup.main:0000000000000020 .L0 
C:\Users\zanil\AppData\Local\Temp\ccHlZXb5.s:48     .text.startup.main:0000000000000020 .L0 
C:\Users\zanil\AppData\Local\Temp\ccHlZXb5.s:51     .text.startup.main:0000000000000028 .L0 
C:\Users\zanil\AppData\Local\Temp\ccHlZXb5.s:54     .text.startup.main:0000000000000030 .L0 
C:\Users\zanil\AppData\Local\Temp\ccHlZXb5.s:55     .text.startup.main:0000000000000030 .L0 
C:\Users\zanil\AppData\Local\Temp\ccHlZXb5.s:57     .text.startup.main:0000000000000032 .L0 
C:\Users\zanil\AppData\Local\Temp\ccHlZXb5.s:60     .text.startup.main:000000000000003a .L0 
C:\Users\zanil\AppData\Local\Temp\ccHlZXb5.s:61     .text.startup.main:000000000000003a .L0 
C:\Users\zanil\AppData\Local\Temp\ccHlZXb5.s:63     .text.startup.main:000000000000003c .L0 
C:\Users\zanil\AppData\Local\Temp\ccHlZXb5.s:66     .text.startup.main:0000000000000044 .L0 
C:\Users\zanil\AppData\Local\Temp\ccHlZXb5.s:67     .text.startup.main:0000000000000044 .L0 
C:\Users\zanil\AppData\Local\Temp\ccHlZXb5.s:69     .text.startup.main:0000000000000046 .L0 
C:\Users\zanil\AppData\Local\Temp\ccHlZXb5.s:72     .text.startup.main:000000000000004e .L0 
C:\Users\zanil\AppData\Local\Temp\ccHlZXb5.s:74     .text.startup.main:0000000000000050 .L0 
C:\Users\zanil\AppData\Local\Temp\ccHlZXb5.s:78     .text.startup.main:0000000000000054 .L0 
C:\Users\zanil\AppData\Local\Temp\ccHlZXb5.s:82     .text.startup.main:0000000000000056 .L0 
C:\Users\zanil\AppData\Local\Temp\ccHlZXb5.s:83     .text.startup.main:0000000000000056 .L0 
C:\Users\zanil\AppData\Local\Temp\ccHlZXb5.s:84     .text.startup.main:0000000000000056 .L0 
C:\Users\zanil\AppData\Local\Temp\ccHlZXb5.s:87     .text.startup.main:0000000000000058 .L0 
C:\Users\zanil\AppData\Local\Temp\ccHlZXb5.s:88     .text.startup.main:0000000000000058 .L0 
C:\Users\zanil\AppData\Local\Temp\ccHlZXb5.s:91     .text.startup.main:0000000000000060 .L0 
C:\Users\zanil\AppData\Local\Temp\ccHlZXb5.s:93     .text.startup.main:0000000000000062 .L0 
C:\Users\zanil\AppData\Local\Temp\ccHlZXb5.s:96     .text.startup.main:000000000000006a .L0 
C:\Users\zanil\AppData\Local\Temp\ccHlZXb5.s:99     .text.startup.main:000000000000006c .L0 
C:\Users\zanil\AppData\Local\Temp\ccHlZXb5.s:102    .text.startup.main:0000000000000074 .L0 
C:\Users\zanil\AppData\Local\Temp\ccHlZXb5.s:103    .text.startup.main:0000000000000074 .L0 
C:\Users\zanil\AppData\Local\Temp\ccHlZXb5.s:104    .text.startup.main:0000000000000074 .L0 
C:\Users\zanil\AppData\Local\Temp\ccHlZXb5.s:107    .text.startup.main:0000000000000078 .L0 
C:\Users\zanil\AppData\Local\Temp\ccHlZXb5.s:108    .text.startup.main:0000000000000078 .L0 
C:\Users\zanil\AppData\Local\Temp\ccHlZXb5.s:116    .text.startup.main:000000000000008a .L0 
C:\Users\zanil\AppData\Local\Temp\ccHlZXb5.s:120    .text.startup.main:000000000000008c .L0 
C:\Users\zanil\AppData\Local\Temp\ccHlZXb5.s:121    .text.startup.main:000000000000008c .L0 
C:\Users\zanil\AppData\Local\Temp\ccHlZXb5.s:126    .text.startup.main:0000000000000096 .L0 
C:\Users\zanil\AppData\Local\Temp\ccHlZXb5.s:128    .text.startup.main:000000000000009a .L0 
C:\Users\zanil\AppData\Local\Temp\ccHlZXb5.s:129    .text.startup.main:000000000000009a .L0 
C:\Users\zanil\AppData\Local\Temp\ccHlZXb5.s:132    .text.startup.main:000000000000009c .L0 
C:\Users\zanil\AppData\Local\Temp\ccHlZXb5.s:134    .text.startup.main:00000000000000a0 .L0 
C:\Users\zanil\AppData\Local\Temp\ccHlZXb5.s:138    .text.startup.main:00000000000000a2 .L0 
C:\Users\zanil\AppData\Local\Temp\ccHlZXb5.s:139    .text.startup.main:00000000000000a2 .L0 
GAS LISTING C:\Users\zanil\AppData\Local\Temp\ccHlZXb5.s 			page 7


C:\Users\zanil\AppData\Local\Temp\ccHlZXb5.s:143    .text.startup.main:00000000000000aa .L0 
C:\Users\zanil\AppData\Local\Temp\ccHlZXb5.s:145    .text.startup.main:00000000000000ae .L0 
C:\Users\zanil\AppData\Local\Temp\ccHlZXb5.s:147    .text.startup.main:00000000000000b2 .L0 
C:\Users\zanil\AppData\Local\Temp\ccHlZXb5.s:156    .text.startup.main:00000000000000c0 .L0 
C:\Users\zanil\AppData\Local\Temp\ccHlZXb5.s:161    .text.startup.main:00000000000000ce .L0 
C:\Users\zanil\AppData\Local\Temp\ccHlZXb5.s:166    .text.startup.main:00000000000000da .L0 
C:\Users\zanil\AppData\Local\Temp\ccHlZXb5.s:167    .text.startup.main:00000000000000dc .L0 
C:\Users\zanil\AppData\Local\Temp\ccHlZXb5.s:172    .rodata:0000000000000000 .LANCHOR0
C:\Users\zanil\AppData\Local\Temp\ccHlZXb5.s:170    .text.startup.main:00000000000000dc .L0 
                     .debug_frame:0000000000000000 .L0 
C:\Users\zanil\AppData\Local\Temp\ccHlZXb5.s:80     .text.startup.main:0000000000000056 .L2
C:\Users\zanil\AppData\Local\Temp\ccHlZXb5.s:118    .text.startup.main:000000000000008c .L3
C:\Users\zanil\AppData\Local\Temp\ccHlZXb5.s:154    .text.startup.main:00000000000000c0 .L4
C:\Users\zanil\AppData\Local\Temp\ccHlZXb5.s:136    .text.startup.main:00000000000000a2 .L5
C:\Users\zanil\AppData\Local\Temp\ccHlZXb5.s:76     .text.startup.main:0000000000000054 .L6
C:\Users\zanil\AppData\Local\Temp\ccHlZXb5.s:547    .debug_abbrev:0000000000000000 .Ldebug_abbrev0
C:\Users\zanil\AppData\Local\Temp\ccHlZXb5.s:1027   .debug_str:000000000000013b .LASF26
C:\Users\zanil\AppData\Local\Temp\ccHlZXb5.s:1011   .debug_str:00000000000000f8 .LASF27
C:\Users\zanil\AppData\Local\Temp\ccHlZXb5.s:995    .debug_str:000000000000006b .LASF28
C:\Users\zanil\AppData\Local\Temp\ccHlZXb5.s:967    .debug_ranges:0000000000000000 .Ldebug_ranges0
C:\Users\zanil\AppData\Local\Temp\ccHlZXb5.s:973    .debug_line:0000000000000000 .Ldebug_line0
C:\Users\zanil\AppData\Local\Temp\ccHlZXb5.s:1001   .debug_str:00000000000000be .LASF0
C:\Users\zanil\AppData\Local\Temp\ccHlZXb5.s:1035   .debug_str:00000000000001dd .LASF1
C:\Users\zanil\AppData\Local\Temp\ccHlZXb5.s:983    .debug_str:000000000000001e .LASF2
C:\Users\zanil\AppData\Local\Temp\ccHlZXb5.s:1021   .debug_str:0000000000000124 .LASF3
C:\Users\zanil\AppData\Local\Temp\ccHlZXb5.s:987    .debug_str:000000000000003e .LASF4
C:\Users\zanil\AppData\Local\Temp\ccHlZXb5.s:977    .debug_str:0000000000000008 .LASF5
C:\Users\zanil\AppData\Local\Temp\ccHlZXb5.s:993    .debug_str:0000000000000060 .LASF9
C:\Users\zanil\AppData\Local\Temp\ccHlZXb5.s:985    .debug_str:000000000000002c .LASF6
C:\Users\zanil\AppData\Local\Temp\ccHlZXb5.s:1009   .debug_str:00000000000000ea .LASF7
C:\Users\zanil\AppData\Local\Temp\ccHlZXb5.s:1039   .debug_str:00000000000001f1 .LASF8
C:\Users\zanil\AppData\Local\Temp\ccHlZXb5.s:1029   .debug_str:00000000000001c3 .LASF10
C:\Users\zanil\AppData\Local\Temp\ccHlZXb5.s:1015   .debug_str:0000000000000106 .LASF29
C:\Users\zanil\AppData\Local\Temp\ccHlZXb5.s:1033   .debug_str:00000000000001d1 .LASF11
C:\Users\zanil\AppData\Local\Temp\ccHlZXb5.s:999    .debug_str:00000000000000b9 .LASF30
C:\Users\zanil\AppData\Local\Temp\ccHlZXb5.s:14     .text.startup.main:0000000000000000 .LFB2
C:\Users\zanil\AppData\Local\Temp\ccHlZXb5.s:168    .text.startup.main:00000000000000dc .LFE2
C:\Users\zanil\AppData\Local\Temp\ccHlZXb5.s:815    .debug_loc:0000000000000000 .LLST0
C:\Users\zanil\AppData\Local\Temp\ccHlZXb5.s:828    .debug_loc:0000000000000021 .LLST1
C:\Users\zanil\AppData\Local\Temp\ccHlZXb5.s:859    .debug_loc:000000000000006f .LLST2
C:\Users\zanil\AppData\Local\Temp\ccHlZXb5.s:879    .debug_loc:00000000000000a4 .LLST3
C:\Users\zanil\AppData\Local\Temp\ccHlZXb5.s:991    .debug_str:000000000000005b .LASF12
C:\Users\zanil\AppData\Local\Temp\ccHlZXb5.s:890    .debug_loc:00000000000000c2 .LLST4
C:\Users\zanil\AppData\Local\Temp\ccHlZXb5.s:915    .debug_loc:0000000000000103 .LLST5
C:\Users\zanil\AppData\Local\Temp\ccHlZXb5.s:979    .debug_str:0000000000000011 .LASF13
C:\Users\zanil\AppData\Local\Temp\ccHlZXb5.s:937    .debug_loc:000000000000013a .LLST6
C:\Users\zanil\AppData\Local\Temp\ccHlZXb5.s:1025   .debug_str:0000000000000136 .LASF14
C:\Users\zanil\AppData\Local\Temp\ccHlZXb5.s:1031   .debug_str:00000000000001cc .LASF15
C:\Users\zanil\AppData\Local\Temp\ccHlZXb5.s:989    .debug_str:0000000000000051 .LASF16
C:\Users\zanil\AppData\Local\Temp\ccHlZXb5.s:49     .text.startup.main:0000000000000028 .LVL1
C:\Users\zanil\AppData\Local\Temp\ccHlZXb5.s:52     .text.startup.main:0000000000000030 .LVL2
C:\Users\zanil\AppData\Local\Temp\ccHlZXb5.s:58     .text.startup.main:000000000000003a .LVL3
C:\Users\zanil\AppData\Local\Temp\ccHlZXb5.s:64     .text.startup.main:0000000000000044 .LVL4
C:\Users\zanil\AppData\Local\Temp\ccHlZXb5.s:70     .text.startup.main:000000000000004e .LVL5
C:\Users\zanil\AppData\Local\Temp\ccHlZXb5.s:89     .text.startup.main:0000000000000060 .LVL9
C:\Users\zanil\AppData\Local\Temp\ccHlZXb5.s:94     .text.startup.main:000000000000006a .LVL10
C:\Users\zanil\AppData\Local\Temp\ccHlZXb5.s:100    .text.startup.main:0000000000000074 .LVL12
GAS LISTING C:\Users\zanil\AppData\Local\Temp\ccHlZXb5.s 			page 8


C:\Users\zanil\AppData\Local\Temp\ccHlZXb5.s:114    .text.startup.main:000000000000008a .LVL15
C:\Users\zanil\AppData\Local\Temp\ccHlZXb5.s:122    .text.startup.main:0000000000000094 .LVL17
C:\Users\zanil\AppData\Local\Temp\ccHlZXb5.s:151    .text.startup.main:00000000000000be .LVL22
C:\Users\zanil\AppData\Local\Temp\ccHlZXb5.s:159    .text.startup.main:00000000000000ce .LVL24
C:\Users\zanil\AppData\Local\Temp\ccHlZXb5.s:164    .text.startup.main:00000000000000da .LVL25
C:\Users\zanil\AppData\Local\Temp\ccHlZXb5.s:1013   .debug_str:00000000000000ff .LASF31
C:\Users\zanil\AppData\Local\Temp\ccHlZXb5.s:1005   .debug_str:00000000000000d2 .LASF32
C:\Users\zanil\AppData\Local\Temp\ccHlZXb5.s:1003   .debug_str:00000000000000cb .LASF17
C:\Users\zanil\AppData\Local\Temp\ccHlZXb5.s:975    .debug_str:0000000000000000 .LASF18
C:\Users\zanil\AppData\Local\Temp\ccHlZXb5.s:1037   .debug_str:00000000000001e9 .LASF19
C:\Users\zanil\AppData\Local\Temp\ccHlZXb5.s:1023   .debug_str:000000000000012e .LASF20
C:\Users\zanil\AppData\Local\Temp\ccHlZXb5.s:1017   .debug_str:0000000000000116 .LASF21
C:\Users\zanil\AppData\Local\Temp\ccHlZXb5.s:997    .debug_str:00000000000000b2 .LASF22
C:\Users\zanil\AppData\Local\Temp\ccHlZXb5.s:1019   .debug_str:000000000000011d .LASF23
C:\Users\zanil\AppData\Local\Temp\ccHlZXb5.s:1007   .debug_str:00000000000000e3 .LASF24
C:\Users\zanil\AppData\Local\Temp\ccHlZXb5.s:981    .debug_str:0000000000000016 .LASF25
C:\Users\zanil\AppData\Local\Temp\ccHlZXb5.s:23     .text.startup.main:0000000000000002 .LCFI0
C:\Users\zanil\AppData\Local\Temp\ccHlZXb5.s:19     .text.startup.main:0000000000000000 .LVL0
C:\Users\zanil\AppData\Local\Temp\ccHlZXb5.s:75     .text.startup.main:0000000000000054 .LVL6
C:\Users\zanil\AppData\Local\Temp\ccHlZXb5.s:79     .text.startup.main:0000000000000056 .LVL7
C:\Users\zanil\AppData\Local\Temp\ccHlZXb5.s:97     .text.startup.main:000000000000006c .LVL11
C:\Users\zanil\AppData\Local\Temp\ccHlZXb5.s:106    .text.startup.main:0000000000000078 .LVL13
C:\Users\zanil\AppData\Local\Temp\ccHlZXb5.s:117    .text.startup.main:000000000000008c .LVL16
C:\Users\zanil\AppData\Local\Temp\ccHlZXb5.s:109    .text.startup.main:000000000000007c .LVL14
C:\Users\zanil\AppData\Local\Temp\ccHlZXb5.s:124    .text.startup.main:0000000000000096 .LVL18
C:\Users\zanil\AppData\Local\Temp\ccHlZXb5.s:148    .text.startup.main:00000000000000b4 .LVL21
C:\Users\zanil\AppData\Local\Temp\ccHlZXb5.s:135    .text.startup.main:00000000000000a2 .LVL20
C:\Users\zanil\AppData\Local\Temp\ccHlZXb5.s:153    .text.startup.main:00000000000000c0 .LVL23
C:\Users\zanil\AppData\Local\Temp\ccHlZXb5.s:130    .text.startup.main:000000000000009c .LVL19
C:\Users\zanil\AppData\Local\Temp\ccHlZXb5.s:198    .debug_info:0000000000000000 .Ldebug_info0

UNDEFINED SYMBOLS
memcpy
t5omsi
colinit
l88init
keyinit
t5expq
colset
l88row
l88mem
keyscan
